; Function Attrs: mustprogress uwtable
define noundef zeroext i1 @_ZN5Ipopt19DenseGenSchurDriver14SchurFactorizeEv(ptr noundef nonnull readonly align 8 captures(none) dereferenceable(96) %0) unnamed_addr #4 align 2 {
  %2 = getelementptr inbounds nuw i8, ptr %0, i64 88
  %3 = load ptr, ptr %2, align 8, !tbaa !20
  %.not = icmp eq ptr %3, null
  br i1 %.not, label %6, label %4

4:                                                ; preds = %1
  %5 = tail call noundef zeroext i1 @_ZN5Ipopt14DenseGenMatrix22ComputeLUFactorInPlaceEv(ptr noundef nonnull align 8 dereferenceable(104) %3)
  br label %6

6:                                                ; preds = %1, %4
  %.0 = phi i1 [ %5, %4 ], [ true, %1 ]
  ret i1 %.0
}